; Function Attrs: mustprogress nounwind uwtable
define hidden void @_ZN11PhaseOutput12install_stubEPKc(ptr noundef nonnull align 8 dereferenceable(700) %0, ptr noundef %1) local_unnamed_addr #0 align 2 {
  %3 = getelementptr inbounds i8, ptr %0, i64 8
  %4 = load ptr, ptr %3, align 8
  %5 = getelementptr inbounds i8, ptr %4, i64 352
  %6 = load ptr, ptr %5, align 8
  %7 = getelementptr inbounds i8, ptr %6, i64 88
  %8 = load ptr, ptr %7, align 8
  %9 = icmp ne ptr %8, null
  %10 = getelementptr inbounds i8, ptr %4, i64 376
  %11 = load ptr, ptr %10, align 8
  %12 = icmp ne ptr %11, null
  %13 = select i1 %9, i1 true, i1 %12
  br i1 %13, label %28, label %14

14:                                               ; preds = %2
  %15 = getelementptr inbounds i8, ptr %0, i64 16
  %16 = getelementptr inbounds i8, ptr %0, i64 576
  %17 = load i32, ptr %16, align 8
  %18 = ashr i32 %17, 1
  %19 = getelementptr inbounds i8, ptr %0, i64 544
  %20 = load ptr, ptr %19, align 8
  %21 = tail call noundef ptr @_ZN11RuntimeStub16new_runtime_stubEPKcP10CodeBuffersiP9OopMapSetbb(ptr noundef %1, ptr noundef nonnull %15, i16 noundef signext -1, i32 noundef %18, ptr noundef %20, i1 noundef zeroext false, i1 noundef zeroext true) #14
  %22 = load ptr, ptr %3, align 8
  %23 = getelementptr inbounds i8, ptr %21, i64 36
  %24 = load i32, ptr %23, align 4
  %25 = sext i32 %24 to i64
  %26 = getelementptr inbounds i8, ptr %21, i64 %25
  %27 = getelementptr inbounds i8, ptr %22, i64 80
  store ptr %26, ptr %27, align 8
  br label %28

28:                                               ; preds = %2, %14
  ret void
}